; Function Attrs: mustprogress nofree norecurse nosync nounwind willreturn memory(argmem: read) uwtable
define internal range(i32 0, 65536) i32 @fold_simplify_shift2_ki(ptr noundef readonly captures(none) %0) #6 {
  %2 = getelementptr inbounds nuw i8, ptr %0, i64 184
  %3 = getelementptr inbounds nuw i8, ptr %0, i64 197
  %4 = load i8, ptr %3, align 1, !tbaa !28
  %5 = icmp eq i8 %4, 23
  br i1 %5, label %6, label %10

6:                                                ; preds = %1
  %7 = getelementptr inbounds nuw i8, ptr %0, i64 192
  %8 = load i32, ptr %7, align 8, !tbaa !28
  %9 = sext i32 %8 to i64
  br label %13

10:                                               ; preds = %1
  %11 = getelementptr inbounds nuw i8, ptr %0, i64 200
  %12 = load i64, ptr %11, align 8, !tbaa !28
  br label %13

13:                                               ; preds = %10, %6
  %14 = phi i64 [ %9, %6 ], [ %12, %10 ]
  %15 = add i64 %14, 1
  %or.cond = icmp ult i64 %15, 2
  br i1 %or.cond, label %16, label %19

16:                                               ; preds = %13
  %17 = load i16, ptr %2, align 8, !tbaa !28
  %18 = zext i16 %17 to i32
  br label %19

19:                                               ; preds = %13, %16
  %.0 = phi i32 [ %18, %16 ], [ 0, %13 ]
  ret i32 %.0
}